; Function Attrs: mustprogress nounwind uwtable
define void @_ZN17gmx_reverse_top_tD2Ev(ptr noundef nonnull align 8 captures(none) dereferenceable(8) %0) unnamed_addr #11 align 2 personality ptr @__gxx_personality_v0 {
  %2 = load ptr, ptr %0, align 8, !tbaa !61
  %.not.i = icmp eq ptr %2, null
  br i1 %.not.i, label %_ZNSt10unique_ptrIN17gmx_reverse_top_t4ImplESt14default_deleteIS1_EED2Ev.exit, label %_ZNKSt14default_deleteIN17gmx_reverse_top_t4ImplEEclEPS1_.exit.i

_ZNKSt14default_deleteIN17gmx_reverse_top_t4ImplEEclEPS1_.exit.i: ; preds = %1
  tail call void @_ZN17gmx_reverse_top_t4ImplD2Ev(ptr noundef nonnull align 8 dereferenceable(152) %2) #23
  tail call void @_ZdlPvm(ptr noundef nonnull %2, i64 noundef 152) #22
  br label %_ZNSt10unique_ptrIN17gmx_reverse_top_t4ImplESt14default_deleteIS1_EED2Ev.exit

_ZNSt10unique_ptrIN17gmx_reverse_top_t4ImplESt14default_deleteIS1_EED2Ev.exit: ; preds = %1, %_ZNKSt14default_deleteIN17gmx_reverse_top_t4ImplEEclEPS1_.exit.i
  store ptr null, ptr %0, align 8, !tbaa !61
  ret void
}